(dp0
V54608
p1
I0
sV54609
p2
I1
sV54218
p3
I2
sV54215
p4
I3
sV54214
p5
I4
sV54217
p6
I0
sV54216
p7
I5
sV54211
p8
I0
sV54210
p9
I0
sV54213
p10
I12
sV54212
p11
I4
sV53643
p12
I6
sV53642
p13
I0
sV53641
p14
I6
sV53647
p15
I7
sV53646
p16
I8
sV53645
p17
I9
sV53644
p18
I4
sV53649
p19
I3
sV53648
p20
I10
sV53245
p21
I11
sV53011
p22
I11
sV53241
p23
I11
sV53240
p24
I9
sV51646
p25
I10
sV54041
p26
I0
sV54042
p27
I12
sV54043
p28
I4
sV54044
p29
I4
sV54045
p30
I12
sV54046
p31
I13
sV54047
p32
I13
sV54048
p33
I13
sV54049
p34
I12
sV54607
p35
I4
sV53416
p36
I14
sV53417
p37
I10
sV53415
p38
I16
sV53412
p39
I11
sV53413
p40
I1
sV53410
p41
I11
sV53411
p42
I1
sV54320
p43
I0
sV51610
p44
I15
sV53418
p45
I7
sV51160
p46
I10
sV51161
p47
I5
sV51162
p48
I3
sV51163
p49
I3
sV51164
p50
I15
sV51165
p51
I3
sV51166
p52
I15
sV51167
p53
I15
sV51168
p54
I15
sV51169
p55
I3
sV54114
p56
I0
sV54316
p57
I4
sV51200
p58
I3
sV51609
p59
I15
sV51608
p60
I15
sV50362
p61
I3
sV50369
p62
I3
sV52010
p63
I8
sV50441
p64
I8
sV51601
p65
I15
sV54112
p66
I13
sV51602
p67
I15
sV51605
p68
I10
sV51604
p69
I10
sV51607
p70
I10
sV51606
p71
I10
sV52008
p72
I10
sV50443
p73
I8
sV52419
p74
I16
sV52418
p75
I11
sV52415
p76
I5
sV52414
p77
I11
sV52417
p78
I5
sV52416
p79
I1
sV52411
p80
I16
sV52007
p81
I14
sV52413
p82
I9
sV50333
p83
I3
sV54035
p84
I13
sV54034
p85
I13
sV50266
p86
I0
sV50267
p87
I7
sV54138
p88
I4
sV54139
p89
I13
sV50349
p90
I3
sV50348
p91
I15
sV54134
p92
I4
sV50346
p93
I15
sV54136
p94
I0
sV50344
p95
I3
sV54130
p96
I0
sV54131
p97
I0
sV54132
p98
I4
sV50340
p99
I3
sV50336
p100
I6
sV53123
p101
I1
sV53204
p102
I11
sV51657
p103
I15
sV52022
p104
I14
sV51640
p105
I15
sV51115
p106
I5
sV51114
p107
I3
sV51117
p108
I5
sV51116
p109
I3
sV51111
p110
I3
sV51110
p111
I10
sV51113
p112
I3
sV51112
p113
I3
sV52024
p114
I11
sV51119
p115
I7
sV51118
p116
I15
sV52025
p117
I9
sV52135
p118
I7
sV52132
p119
I9
sV52133
p120
I9
sV52130
p121
I6
sV52131
p122
I8
sV51120
p123
I3
sV53125
p124
I11
sV51502
p125
I15
sV51503
p126
I10
sV51501
p127
I7
sV51506
p128
I3
sV51507
p129
I15
sV51504
p130
I10
sV51505
p131
I9
sV52207
p132
I11
sV50334
p133
I3
sV54026
p134
I13
sV50210
p135
I3
sV53144
p136
I1
sV53145
p137
I1
sV53146
p138
I11
sV54025
p139
I13
sV53140
p140
I9
sV53142
p141
I11
sV53143
p142
I16
sV53027
p143
I16
sV53026
p144
I1
sV53025
p145
I1
sV53024
p146
I1
sV53148
p147
I1
sV53149
p148
I1
sV53021
p149
I1
sV53020
p150
I1
sV53607
p151
I10
sV50127
p152
I10
sV53605
p153
I6
sV53604
p154
I8
sV53603
p155
I1
sV53602
p156
I0
sV53601
p157
I9
sV53214
p158
I5
sV53210
p159
I11
sV53211
p160
I11
sV53212
p161
I1
sV53608
p162
I4
sV50219
p163
I7
sV50218
p164
I3
sV50118
p165
I9
sV50996
p166
I0
sV54143
p167
I4
sV51348
p168
I15
sV51349
p169
I7
sV50125
p170
I17
sV54142
p171
I0
sV50123
p172
I10
sV50122
p173
I5
sV50121
p174
I7
sV50120
p175
I10
sV50354
p176
I3
sV51430
p177
I17
sV51347
p178
I10
sV53320
p179
I16
sV53321
p180
I1
sV53322
p181
I1
sV53323
p182
I14
sV50048
p183
I6
sV53325
p184
I1
sV50518
p185
I8
sV53327
p186
I1
sV53328
p187
I11
sV53329
p188
I11
sV50046
p189
I6
sV50047
p190
I6
sV50512
p191
I6
sV50513
p192
I9
sV50042
p193
I5
sV50511
p194
I8
sV54530
p195
I4
sV53609
p196
I9
sV50165
p197
I17
sV50510
p198
I18
sV50431
p199
I8
sV52230
p200
I1
sV52336
p201
I11
sV53513
p202
I9
sV53512
p203
I1
sV53511
p204
I1
sV53510
p205
I6
sV53517
p206
I9
sV53516
p207
I1
sV53515
p208
I1
sV53514
p209
I14
sV51050
p210
I10
sV53519
p211
I1
sV53518
p212
I16
sV50142
p213
I9
sV51051
p214
I5
sV54079
p215
I12
sV51230
p216
I5
sV51231
p217
I7
sV54078
p218
I13
sV50437
p219
I8
sV51355
p220
I9
sV51147
p221
I10
sV51354
p222
I3
sV53118
p223
I11
sV51352
p224
I7
sV50228
p225
I3
sV50229
p226
I15
sV51351
p227
I7
sV50220
p228
I6
sV50221
p229
I8
sV50222
p230
I10
sV54072
p231
I4
sV50224
p232
I3
sV54074
p233
I12
sV50226
p234
I3
sV50227
p235
I3
sV54431
p236
I5
sV54031
p237
I13
sV50223
p238
I15
sV54430
p239
I6
sV50051
p240
I7
sV50225
p241
I7
sV52222
p242
I11
sV52223
p243
I11
sV52220
p244
I16
sV52221
p245
I11
sV52226
p246
I11
sV52227
p247
I5
sV51650
p248
I3
sV50050
p249
I7
sV51151
p250
I15
sV54435
p251
I12
sV51153
p252
I10
sV51152
p253
I15
sV51658
p254
I10
sV51659
p255
I3
sV51676
p256
I3
sV53331
p257
I11
sV54436
p258
I0
sV53307
p259
I14
sV54105
p260
I4
sV50315
p261
I3
sV54107
p262
I4
sV54106
p263
I4
sV50310
p264
I3
sV50311
p265
I3
sV50312
p266
I3
sV50313
p267
I15
sV53305
p268
I11
sV54109
p269
I4
sV54108
p270
I13
sV50090
p271
I18
sV50506
p272
I14
sV50259
p273
I10
sV50258
p274
I15
sV53153
p275
I11
sV50254
p276
I3
sV50257
p277
I6
sV50256
p278
I9
sV50251
p279
I14
sV50250
p280
I6
sV50253
p281
I10
sV50252
p282
I15
sV51215
p283
I3
sV50503
p284
I8
sV53334
p285
I14
sV53338
p286
I1
sV54032
p287
I13
sV51670
p288
I15
sV53319
p289
I1
sV53318
p290
I1
sV51629
p291
I3
sV53311
p292
I1
sV53310
p293
I16
sV53313
p294
I1
sV53312
p295
I1
sV53315
p296
I9
sV53314
p297
I16
sV50950
p298
I15
sV53316
p299
I16
sV52215
p300
I1
sV53333
p301
I14
sV50545
p302
I11
sV51671
p303
I15
sV50552
p304
I1
sV50553
p305
I1
sV50550
p306
I14
sV50003
p307
I9
sV50556
p308
I9
sV50557
p309
I6
sV50006
p310
I6
sV50555
p311
I14
sV50008
p312
I6
sV50009
p313
I6
sV50558
p314
I8
sV50559
p315
I8
sV50381
p316
I15
sV50419
p317
I8
sV50418
p318
I10
sV50413
p319
I6
sV50412
p320
I7
sV50411
p321
I7
sV51672
p322
I10
sV50417
p323
I6
sV50416
p324
I9
sV50415
p325
I18
sV50414
p326
I5
sV53225
p327
I1
sV53224
p328
I1
sV53227
p329
I16
sV53226
p330
I1
sV52224
p331
I5
sV51222
p332
I10
sV54206
p333
I0
sV54207
p334
I0
sV54204
p335
I9
sV52225
p336
I1
sV53229
p337
I16
sV53228
p338
I1
sV54201
p339
I6
sV51681
p340
I15
sV51680
p341
I10
sV51683
p342
I7
sV51682
p343
I15
sV53658
p344
I8
sV53659
p345
I6
sV51687
p346
I10
sV50023
p347
I7
sV53654
p348
I5
sV53655
p349
I6
sV53656
p350
I4
sV53657
p351
I7
sV53650
p352
I4
sV52228
p353
I9
sV53652
p354
I0
sV53653
p355
I6
sV50262
p356
I3
sV50021
p357
I5
sV50569
p358
I19
sV51376
p359
I10
sV51378
p360
I18
sV50403
p361
I5
sV50029
p362
I9
sV50027
p363
I6
sV54512
p364
I4
sV54513
p365
I0
sV54510
p366
I4
sV50076
p367
I7
sV50071
p368
I7
sV50070
p369
I5
sV54514
p370
I0
sV54515
p371
I4
sV54518
p372
I13
sV54519
p373
I11
sV50079
p374
I6
sV50078
p375
I5
sV53523
p376
I6
sV54703
p377
I12
sV54425
p378
I6
sV54701
p379
I12
sV52258
p380
I5
sV54705
p381
I5
sV54704
p382
I12
sV54001
p383
I12
sV53332
p384
I14
sV53423
p385
I9
sV53422
p386
I16
sV53421
p387
I11
sV53427
p388
I8
sV53426
p389
I16
sV53425
p390
I1
sV53424
p391
I1
sV53429
p392
I0
sV53428
p393
I1
sV50115
p394
I7
sV53442
p395
I1
sV50049
p396
I12
sV53445
p397
I1
sV50382
p398
I3
sV51618
p399
I7
sV51619
p400
I10
sV51209
p401
I10
sV51208
p402
I7
sV50444
p403
I15
sV51205
p404
I7
sV51204
p405
I10
sV51207
p406
I10
sV51206
p407
I15
sV51616
p408
I15
sV51617
p409
I10
sV51203
p410
I7
sV51350
p411
I7
sV50261
p412
I15
sV51641
p413
I9
sV53007
p414
I11
sV52408
p415
I11
sV52409
p416
I11
sV52407
p417
I18
sV52404
p418
I11
sV52405
p419
I17
sV52402
p420
I11
sV52403
p421
I1
sV52014
p422
I6
sV52401
p423
I16
sV54149
p424
I5
sV54027
p425
I13
sV50213
p426
I9
sV50212
p427
I10
sV50215
p428
I7
sV50214
p429
I6
sV50217
p430
I3
sV50216
p431
I15
sV50350
p432
I3
sV50351
p433
I3
sV50352
p434
I10
sV50353
p435
I3
sV54145
p436
I5
sV50355
p437
I15
sV50356
p438
I15
sV50357
p439
I3
sV50314
p440
I3
sV54104
p441
I0
sV51637
p442
I10
sV50316
p443
I3
sV51107
p444
I0
sV53326
p445
I1
sV50317
p446
I15
sV52316
p447
I1
sV52317
p448
I1
sV52314
p449
I1
sV52315
p450
I9
sV54101
p451
I13
sV52319
p452
I11
sV50455
p453
I6
sV51108
p454
I17
sV51109
p455
I3
sV50454
p456
I8
sV54103
p457
I9
sV50453
p458
I6
sV54102
p459
I13
sV54239
p460
I0
sV50320
p461
I3
sV53235
p462
I11
sV50451
p463
I8
sV52311
p464
I1
sV51537
p465
I3
sV51138
p466
I3
sV50450
p467
I6
sV51531
p468
I10
sV50318
p469
I6
sV50329
p470
I9
sV50328
p471
I9
sV50458
p472
I9
sV50325
p473
I3
sV50456
p474
I8
sV50327
p475
I3
sV50326
p476
I15
sV50321
p477
I3
sV50452
p478
I8
sV50323
p479
I3
sV50322
p480
I3
sV52422
p481
I11
sV53133
p482
I11
sV53135
p483
I1
sV53134
p484
I1
sV53137
p485
I1
sV53136
p486
I11
sV53030
p487
I14
sV53031
p488
I1
sV53032
p489
I11
sV53033
p490
I1
sV53034
p491
I1
sV53035
p492
I11
sV54613
p493
I1
sV53610
p494
I6
sV53611
p495
I0
sV53344
p496
I1
sV53345
p497
I1
sV53342
p498
I1
sV53615
p499
I8
sV53340
p500
I7
sV53341
p501
I11
sV53139
p502
I1
sV53238
p503
I11
sV53138
p504
I1
sV50359
p505
I10
sV50548
p506
I9
sV54234
p507
I0
sV50130
p508
I6
sV50264
p509
I3
sV50132
p510
I9
sV50133
p511
I17
sV50134
p512
I10
sV50135
p513
I6
sV50136
p514
I7
sV50265
p515
I15
sV50138
p516
I15
sV50139
p517
I6
sV53330
p518
I1
sV50039
p519
I6
sV50038
p520
I6
sV50529
p521
I5
sV50528
p522
I6
sV50031
p523
I7
sV50260
p524
I10
sV50521
p525
I14
sV54414
p526
I13
sV54413
p527
I6
sV50526
p528
I8
sV54411
p529
I17
sV54030
p530
I4
sV54029
p531
I4
sV54033
p532
I4
sV53336
p533
I16
sV50263
p534
I10
sV53612
p535
I12
sV50347
p536
I15
sV53613
p537
I2
sV53508
p538
I1
sV53509
p539
I6
sV53663
p540
I4
sV54135
p541
I4
sV53504
p542
I6
sV53614
p543
I0
sV53506
p544
I1
sV53507
p545
I8
sV50345
p546
I15
sV53502
p547
I8
sV53503
p548
I6
sV54137
p549
I16
sV53616
p550
I17
sV50343
p551
I15
sV53617
p552
I4
sV54126
p553
I13
sV50342
p554
I10
sV54242
p555
I0
sV50144
p556
I7
sV50147
p557
I6
sV51318
p558
I5
sV50141
p559
I5
sV50341
p560
I3
sV50143
p561
I10
sV50319
p562
I3
sV54133
p563
I5
sV50149
p564
I6
sV50148
p565
I6
sV51321
p566
I10
sV50324
p567
I3
sV54076
p568
I13
sV51126
p569
I3
sV51141
p570
I3
sV50237
p571
I3
sV50543
p572
I14
sV51312
p573
I10
sV54062
p574
I0
sV54063
p575
I0
sV54060
p576
I13
sV54061
p577
I4
sV54066
p578
I13
sV54067
p579
I4
sV54064
p580
I12
sV50024
p581
I7
sV50236
p582
I3
sV51663
p583
I15
sV51662
p584
I3
sV51661
p585
I3
sV51660
p586
I10
sV51315
p587
I3
sV51665
p588
I15
sV52218
p589
I10
sV51142
p590
I15
sV51143
p591
I15
sV51140
p592
I15
sV52214
p593
I1
sV52213
p594
I1
sV52212
p595
I6
sV52211
p596
I1
sV51145
p597
I6
sV53147
p598
I11
sV50238
p599
I3
sV50235
p600
I10
sV50429
p601
I9
sV50088
p602
I11
sV54117
p603
I0
sV50363
p604
I15
sV54115
p605
I13
sV50365
p606
I5
sV54113
p607
I12
sV50367
p608
I15
sV54111
p609
I13
sV50080
p610
I9
sV50368
p611
I10
sV50082
p612
I3
sV50083
p613
I6
sV50084
p614
I6
sV50085
p615
I5
sV50086
p616
I17
sV50087
p617
I17
sV50109
p618
I15
sV50538
p619
I14
sV50248
p620
I15
sV50249
p621
I3
sV50246
p622
I15
sV50247
p623
I6
sV50244
p624
I3
sV50245
p625
I15
sV50242
p626
I10
sV50243
p627
I15
sV50240
p628
I3
sV50241
p629
I3
sV51144
p630
I15
sV52443
p631
I16
sV51149
p632
I3
sV54028
p633
I12
sV50231
p634
I3
sV54440
p635
I0
sV50230
p636
I10
sV50954
p637
I3
sV53308
p638
I1
sV50108
p639
I7
sV54129
p640
I0
sV50131
p641
I5
sV53302
p642
I9
sV53303
p643
I1
sV50961
p644
I17
sV53301
p645
I1
sV53306
p646
I14
sV50966
p647
I20
sV53304
p648
I14
sV50953
p649
I20
sV53213
p650
I1
sV52020
p651
I6
sV53317
p652
I11
sV50159
p653
I5
sV54433
p654
I4
sV50951
p655
I0
sV50406
p656
I5
sV50407
p657
I5
sV50401
p658
I17
sV50402
p659
I20
sV50568
p660
I17
sV50567
p661
I9
sV50566
p662
I14
sV50565
p663
I14
sV50564
p664
I9
sV50408
p665
I18
sV50562
p666
I20
sV50561
p667
I6
sV50560
p668
I8
sV53004
p669
I1
sV52141
p670
I17
sV53006
p671
I1
sV53009
p672
I1
sV53008
p673
I1
sV50069
p674
I7
sV53236
p675
I1
sV53237
p676
I2
sV53234
p677
I11
sV54238
p678
I4
sV53232
p679
I1
sV53233
p680
I11
sV53230
p681
I14
sV53231
p682
I16
sV54233
p683
I4
sV54232
p684
I4
sV54231
p685
I20
sV54230
p686
I5
sV54237
p687
I4
sV54236
p688
I13
sV54235
p689
I8
sV53239
p690
I16
sV51692
p691
I3
sV53628
p692
I5
sV51690
p693
I18
sV51691
p694
I15
sV54071
p695
I0
sV50900
p696
I15
sV53621
p697
I0
sV53623
p698
I13
sV53622
p699
I4
sV53625
p700
I6
sV53624
p701
I4
sV53627
p702
I4
sV53626
p703
I6
sV51645
p704
I19
sV52339
p705
I1
sV51612
p706
I10
sV52233
p707
I1
sV53408
p708
I16
sV50066
p709
I9
sV50067
p710
I9
sV50064
p711
I15
sV50065
p712
I17
sV50062
p713
I7
sV50063
p714
I7
sV50060
p715
I5
sV50061
p716
I5
sV50101
p717
I10
sV50539
p718
I14
sV50103
p719
I5
sV50102
p720
I9
sV50105
p721
I7
sV50104
p722
I10
sV50107
p723
I9
sV50106
p724
I7
sV50001
p725
I9
sV51613
p726
I17
sV50338
p727
I3
sV51642
p728
I3
sV50002
p729
I9
sV53535
p730
I1
sV50523
p731
I8
sV51648
p732
I10
sV50551
p733
I9
sV53531
p734
I2
sV53439
p735
I1
sV53533
p736
I8
sV50522
p737
I9
sV53434
p738
I1
sV50004
p739
I6
sV53436
p740
I16
sV53437
p741
I1
sV53430
p742
I1
sV50033
p743
I6
sV53432
p744
I18
sV50005
p745
I9
sV51627
p746
I10
sV50032
p747
I10
sV50520
p748
I14
sV51622
p749
I5
sV51621
p750
I15
sV51620
p751
I5
sV50035
p752
I6
sV50007
p753
I7
sV51180
p754
I3
sV54412
p755
I9
sV54620
p756
I4
sV54621
p757
I14
sV54622
p758
I4
sV50525
p759
I14
sV51218
p760
I10
sV51219
p761
I7
sV51216
p762
I10
sV53438
p763
I11
sV51214
p764
I10
sV53680
p765
I4
sV51212
p766
I17
sV51213
p767
I7
sV51210
p768
I10
sV51211
p769
I13
sV50514
p770
I5
sV52438
p771
I9
sV51611
p772
I10
sV53447
p773
I1
sV52433
p774
I11
sV52432
p775
I11
sV52431
p776
I0
sV53532
p777
I6
sV52437
p778
I1
sV52436
p779
I11
sV52435
p780
I11
sV52434
p781
I9
sV50202
p782
I15
sV50203
p783
I15
sV54011
p784
I4
sV50201
p785
I9
sV50206
p786
I15
sV50207
p787
I15
sV54015
p788
I5
sV53435
p789
I1
sV54152
p790
I0
sV50119
p791
I10
sV54019
p792
I11
sV50209
p793
I9
sV54156
p794
I13
sV54154
p795
I12
sV54155
p796
I4
sV54014
p797
I13
sV50026
p798
I6
sV54438
p799
I0
sV53431
p800
I6
sV52244
p801
I1
sV52245
p802
I16
sV51131
p803
I9
sV51130
p804
I7
sV51137
p805
I15
sV52241
p806
I1
sV52242
p807
I11
sV51134
p808
I5
sV52327
p809
I2
sV52326
p810
I11
sV51139
p811
I9
sV53433
p812
I7
sV52229
p813
I14
sV52320
p814
I9
sV52118
p815
I8
sV52119
p816
I6
sV52114
p817
I11
sV52115
p818
I8
sV52116
p819
I6
sV52117
p820
I6
sV52110
p821
I6
sV52111
p822
I9
sV52112
p823
I8
sV52113
p824
I8
sV51674
p825
I10
sV51675
p826
I15
sV51520
p827
I10
sV51521
p828
I7
sV51522
p829
I15
sV51523
p830
I15
sV51524
p831
I10
sV53505
p832
I6
sV54203
p833
I6
sV50448
p834
I8
sV50449
p835
I8
sV51677
p836
I15
sV51188
p837
I5
sV50137
p838
I9
sV50339
p839
I15
sV50440
p840
I6
sV50337
p841
I15
sV50442
p842
I6
sV50335
p843
I6
sV50332
p844
I15
sV50445
p845
I13
sV50446
p846
I10
sV50331
p847
I6
sV53122
p848
I9
sV52021
p849
I14
sV53120
p850
I9
sV50447
p851
I14
sV53126
p852
I11
sV53127
p853
I6
sV52026
p854
I9
sV52027
p855
I9
sV52028
p856
I11
sV53661
p857
I7
sV53128
p858
I1
sV53129
p859
I1
sV53660
p860
I7
sV54116
p861
I4
sV50053
p862
I18
sV53662
p863
I15
sV50030
p864
I9
sV51414
p865
I3
sV51415
p866
I17
sV51416
p867
I7
sV51417
p868
I7
sV51410
p869
I5
sV51411
p870
I9
sV51412
p871
I7
sV51413
p872
I9
sV50515
p873
I14
sV51628
p874
I3
sV51418
p875
I10
sV51419
p876
I5
sV50534
p877
I14
sV50535
p878
I6
sV50536
p879
I14
sV50537
p880
I8
sV50530
p881
I6
sV50531
p882
I7
sV51009
p883
I6
sV51008
p884
I10
sV51007
p885
I9
sV51006
p886
I7
sV51005
p887
I10
sV51004
p888
I6
sV51003
p889
I3
sV51002
p890
I17
sV51001
p891
I6
sV53501
p892
I8
sV50383
p893
I5
sV54409
p894
I4
sV50028
p895
I9
sV50380
p896
I7
sV50439
p897
I3
sV50438
p898
I14
sV50385
p899
I5
sV50384
p900
I15
sV50435
p901
I8
sV50434
p902
I15
sV50020
p903
I6
sV50436
p904
I6
sV54404
p905
I4
sV50430
p906
I8
sV50433
p907
I8
sV50432
p908
I6
sV54619
p909
I5
sV54618
p910
I1
sV54150
p911
I4
sV54205
p912
I5
sV53029
p913
I1
sV50376
p914
I15
sV51314
p915
I15
sV54611
p916
I4
sV54610
p917
I4
sV53629
p918
I15
sV54612
p919
I21
sV54615
p920
I4
sV54614
p921
I0
sV54617
p922
I11
sV54616
p923
I16
sV53676
p924
I4
sV53677
p925
I13
sV53674
p926
I5
sV53675
p927
I15
sV53672
p928
I9
sV50509
p929
I17
sV51217
p930
I15
sV50527
p931
I8
sV50533
p932
I8
sV53678
p933
I4
sV53679
p934
I12
sV51252
p935
I6
sV54401
p936
I4
sV51250
p937
I10
sV51251
p938
I10
sV53671
p939
I6
sV53402
p940
I16
sV53023
p941
I1
sV51259
p942
I18
sV53446
p943
I11
sV53022
p944
I1
sV50156
p945
I10
sV50157
p946
I17
sV51319
p947
I15
sV50155
p948
I10
sV50152
p949
I7
sV50153
p950
I6
sV50150
p951
I10
sV50151
p952
I6
sV51313
p953
I15
sV51685
p954
I10
sV51311
p955
I10
sV51310
p956
I10
sV51317
p957
I15
sV51316
p958
I9
sV50158
p959
I10
sV50022
p960
I9
sV54057
p961
I13
sV54056
p962
I13
sV54055
p963
I13
sV54054
p964
I4
sV50034
p965
I6
sV51686
p966
I10
sV54059
p967
I13
sV54058
p968
I4
sV53405
p969
I6
sV51689
p970
I10
sV53407
p971
I14
sV53406
p972
I1
sV53401
p973
I1
sV53403
p974
I16
sV51688
p975
I10
sV53409
p976
I1
sV54403
p977
I4
sV53350
p978
I11
sV50145
p979
I10
sV54128
p980
I13
sV50089
p981
I7
sV50037
p982
I9
sV51171
p983
I3
sV51170
p984
I10
sV50234
p985
I3
sV50540
p986
I14
sV51179
p987
I6
sV53651
p988
I4
sV52208
p989
I9
sV52209
p990
I1
sV51668
p991
I5
sV50146
p992
I7
sV51678
p993
I15
sV51679
p994
I7
sV52200
p995
I1
sV52201
p996
I1
sV54110
p997
I13
sV52203
p998
I11
sV52204
p999
I16
sV52205
p1000
I16
sV52206
p1001
I6
sV50140
p1002
I10
sV52019
p1003
I8
sV52018
p1004
I6
sV52430
p1005
I1
sV51651
p1006
I5
sV53673
p1007
I8
sV53152
p1008
I11
sV53151
p1009
I1
sV52012
p1010
I9
sV52015
p1011
I9
sV50505
p1012
I14
sV52017
p1013
I0
sV52016
p1014
I6
sV50372
p1015
I3
sV50373
p1016
I18
sV50370
p1017
I15
sV50371
p1018
I15
sV54127
p1019
I12
sV50377
p1020
I7
sV50374
p1021
I15
sV50375
p1022
I7
sV54151
p1023
I0
sV54405
p1024
I13
sV50378
p1025
I10
sV50379
p1026
I7
sV50330
p1027
I15
sV52331
p1028
I9
sV52428
p1029
I11
sV53534
p1030
I14
sV50504
p1031
I8
sV53028
p1032
I1
sV52429
p1033
I11
sV54010
p1034
I13
sV54406
p1035
I11
sV54017
p1036
I13
sV54016
p1037
I13
sV52124
p1038
I18
sV52127
p1039
I9
sV52126
p1040
I5
sV52121
p1041
I6
sV52120
p1042
I9
sV50361
p1043
I3
sV52122
p1044
I6
sV50507
p1045
I9
sV50205
p1046
I4
sV52129
p1047
I14
sV52128
p1048
I8
sV51511
p1049
I15
sV51513
p1050
I7
sV51512
p1051
I20
sV51515
p1052
I15
sV51514
p1053
I15
sV54402
p1054
I0
sV54153
p1055
I0
sV51519
p1056
I10
sV51518
p1057
I10
sV50208
p1058
I10
sV54434
p1059
I0
sV50075
p1060
I7
sV54018
p1061
I4
sV50360
p1062
I5
sV50074
p1063
I20
sV50570
p1064
I14
sV50571
p1065
I1
sV50572
p1066
I1
sV50573
p1067
I6
sV50574
p1068
I11
sV50077
p1069
I3
sV50576
p1070
I1
sV50508
p1071
I0
sV53012
p1072
I11
sV53013
p1073
I11
sV53010
p1074
I1
sV54511
p1075
I12
sV53632
p1076
I4
sV53017
p1077
I1
sV53014
p1078
I11
sV53015
p1079
I11
sV50110
p1080
I10
sV54516
p1081
I18
sV53018
p1082
I11
sV53019
p1083
I1
sV51127
p1084
I6
sV53404
p1085
I1
sV54517
p1086
I3
sV53203
p1087
I1
sV53202
p1088
I16
sV53201
p1089
I16
sV53207
p1090
I16
sV50073
p1091
I15
sV53205
p1092
I1
sV50126
p1093
I7
sV50306
p1094
I3
sV53209
p1095
I11
sV53208
p1096
I9
sV53638
p1097
I20
sV50124
p1098
I5
sV50981
p1099
I11
sV53633
p1100
I4
sV53630
p1101
I11
sV53631
p1102
I0
sV50985
p1103
I5
sV50984
p1104
I20
sV52210
p1105
I1
sV53530
p1106
I11
sV51429
p1107
I15
sV51428
p1108
I3
sV51052
p1109
I16
sV51425
p1110
I11
sV51424
p1111
I10
sV51427
p1112
I5
sV51426
p1113
I10
sV51421
p1114
I7
sV51420
p1115
I7
sV51423
p1116
I10
sV51422
p1117
I7
sV50974
p1118
I17
sV50052
p1119
I15
sV53335
p1120
I11
sV54432
p1121
I0
sV50057
p1122
I18
sV50056
p1123
I9
sV50055
p1124
I10
sV50054
p1125
I7
sV50112
p1126
I5
sV50113
p1127
I15
sV50059
p1128
I9
sV50111
p1129
I7
sV50116
p1130
I10
sV50117
p1131
I7
sV50114
p1132
I17
sV50502
p1133
I14
sV54310
p1134
I4
sV54311
p1135
I7
sV54312
p1136
I4
sV54313
p1137
I4
sV54314
p1138
I0
sV54315
p1139
I13
sV51173
p1140
I10
sV54317
p1141
I4
sV54318
p1142
I13
sV50072
p1143
I6
sV50457
p1144
I8
sV53526
p1145
I1
sV53527
p1146
I1
sV53525
p1147
I11
sV53522
p1148
I1
sV50129
p1149
I7
sV53520
p1150
I1
sV53521
p1151
I1
sV53441
p1152
I14
sV53440
p1153
I1
sV53443
p1154
I11
sV50128
p1155
I10
sV50364
p1156
I5
sV53444
p1157
I11
sV53528
p1158
I14
sV53529
p1159
I18
sV51630
p1160
I15
sV51631
p1161
I15
sV50211
p1162
I10
sV50972
p1163
I17
sV52123
p1164
I6
sV51636
p1165
I10
sV51132
p1166
I18
sV51638
p1167
I3
sV51639
p1168
I10
sV53121
p1169
I14
sV50204
p1170
I5
sV54220
p1171
I4
sV54222
p1172
I17
sV54426
p1173
I6
sV50036
p1174
I10
sV51220
p1175
I5
sV54229
p1176
I7
sV54427
p1177
I16
sV50541
p1178
I1
sV54424
p1179
I7
sV54160
p1180
I16
sV52334
p1181
I10
sV50519
p1182
I14
sV52340
p1183
I11
sV50516
p1184
I7
sV50014
p1185
I9
sV54008
p1186
I12
sV54009
p1187
I13
sV50239
p1188
I6
sV50517
p1189
I5
sV54004
p1190
I13
sV54005
p1191
I5
sV54006
p1192
I13
sV54007
p1193
I13
sV50233
p1194
I15
sV50232
p1195
I6
sV54002
p1196
I13
sV54003
p1197
I0
sV50501
p1198
I8
sV53150
p1199
I11
sV54429
p1200
I13
sV50547
p1201
I1
sV54330
p1202
I18
sV52335
p1203
I6
sV52011
p1204
I10
sV50040
p1205
I9
sV50010
p1206
I10
sV53206
p1207
I1
sV52231
p1208
I8
sV51644
p1209
I15
sV51647
p1210
I7
sV52232
p1211
I1
sV52235
p1212
I1
sV52234
p1213
I1
sV51643
p1214
I5
sV51011
p1215
I10
sV51124
p1216
I3
sV51125
p1217
I10
sV52332
p1218
I9
sV52333
p1219
I9
sV51649
p1220
I3
sV51121
p1221
I7
sV51122
p1222
I15
sV51123
p1223
I7
sV54020
p1224
I13
sV53124
p1225
I16
sV53681
p1226
I4
sV50388
p1227
I3
sV51516
p1228
I17
sV54428
p1229
I9
sV51684
p1230
I10
sV50043
p1231
I6
sV51253
p1232
I10
sV54241
p1233
I20
sV52023
p1234
I8
sV52051
p1235
I5
sV50524
p1236
I14
sV53337
p1237
I9
sV50012
p1238
I8
sV50309
p1239
I3
sV50308
p1240
I3
sV52013
p1241
I8
sV50068
p1242
I5
sV53324
p1243
I11
sV50303
p1244
I3
sV50302
p1245
I3
sV50301
p1246
I3
sV50300
p1247
I3
sV50307
p1248
I3
sV51148
p1249
I15
sV50305
p1250
I3
sV50304
p1251
I3
sV52424
p1252
I11
sV52425
p1253
I16
sV52427
p1254
I20
sV52420
p1255
I11
sV52421
p1256
I11
sV53119
p1257
I16
sV52423
p1258
I16
sV53117
p1259
I11
sV53116
p1260
I11
sV53115
p1261
I15
sV53114
p1262
I1
sV53113
p1263
I1
sV53112
p1264
I1
sV53111
p1265
I1
sV53110
p1266
I1
sV54144
p1267
I4
sV52219
p1268
I11
sV53343
p1269
I8
sV52412
p1270
I5
sV51664
p1271
I15
sV50940
p1272
I17
sV51010
p1273
I15
sV53339
p1274
I1
sV52239
p1275
I9
sV52216
p1276
I1
sV51128
p1277
I3
sV50532
p1278
I6
sV51669
p1279
I10
sV50366
p1280
I7
sV50044
p1281
I10
sV50017
p1282
I9
sV50016
p1283
I7
sV50015
p1284
I9
sV50542
p1285
I0
sV50013
p1286
I9
sV50544
p1287
I5
sV50011
p1288
I3
sV50546
p1289
I5
sV50549
p1290
I17
sV51146
p1291
I10
sV51136
p1292
I15
sV50019
p1293
I7
sV50018
p1294
I6
sV50554
p1295
I9
sV50399
p1296
I7
sV50428
p1297
I9
sV51129
p1298
I10
sV50426
p1299
I20
sV50427
p1300
I20
sV50424
p1301
I6
sV50425
p1302
I15
sV50422
p1303
I8
sV50045
p1304
I6
sV50420
p1305
I15
sV50421
p1306
I8
s.